; Function Attrs: nounwind sspstrong uwtable
define internal noundef i64 @udp_bind(i64 noundef %0, i64 noundef %1, i64 noundef %2) #0 {
  %4 = alloca %struct.udp_arg, align 8
  call void @llvm.lifetime.start.p0(i64 16, ptr nonnull %4) #5
  store i64 %0, ptr %4, align 8, !tbaa !12
  %5 = getelementptr inbounds nuw i8, ptr %4, i64 8
  %6 = tail call i32 @rb_io_descriptor(i64 noundef %0) #5
  %7 = tail call i32 @rsock_fd_family(i32 noundef %6) #5
  %8 = tail call ptr @rsock_addrinfo(i64 noundef %1, i64 noundef %2, i32 noundef %7, i32 noundef 2, i32 noundef 0) #5
  store ptr %8, ptr %5, align 8, !tbaa !16
  %9 = ptrtoint ptr %4 to i64
  %10 = ptrtoint ptr %8 to i64
  %11 = call i64 @rb_ensure(ptr noundef nonnull @udp_bind_internal, i64 noundef %9, ptr noundef nonnull @rsock_freeaddrinfo, i64 noundef %10) #5
  %.not = icmp eq i64 %11, 0
  br i1 %.not, label %12, label %13

12:                                               ; preds = %3
  call void @rsock_sys_fail_host_port(ptr noundef nonnull @.str.9, i64 noundef %1, i64 noundef %2) #6
  unreachable

13:                                               ; preds = %3
  call void @llvm.lifetime.end.p0(i64 16, ptr nonnull %4) #5
  ret i64 1
}